target datalayout = "e-m:e-p270:32:32-p271:32:32-p272:64:64-i64:64-i128:128-f80:128-n8:16:32:64-S128"
target triple = "x86_64-unknown-linux-gnu"

%"class.icu_75::number::impl::MicroPropsGenerator" = type { ptr }
%"class.icu_75::number::impl::AdoptingSignumModifierStore" = type { ptr, [4 x ptr] }
%"class.icu_75::number::impl::AdoptingModifierStore" = type { %"class.icu_75::number::impl::ModifierStore", [8 x %"class.icu_75::number::impl::AdoptingSignumModifierStore"] }
%"class.icu_75::number::impl::ModifierStore" = type { ptr }
%"class.icu_75::number::impl::ImmutablePatternModifier" = type { %"class.icu_75::number::impl::MicroPropsGenerator", %"class.icu_75::LocalPointer", ptr, ptr }
%"class.icu_75::LocalPointer" = type { %"class.icu_75::LocalPointerBase" }
%"class.icu_75::LocalPointerBase" = type { ptr }

; Function Attrs: mustprogress nounwind uwtable
define linkonce_odr noundef ptr @_ZNK6icu_756number4impl27AdoptingSignumModifierStoreixENS1_6SignumE(ptr noundef nonnull align 8 dereferenceable(40) %this, i32 noundef %signum) #0 comdat align 2 {
entry:
  %this.addr = alloca ptr, align 8
  %signum.addr = alloca i32, align 4
  store ptr %this, ptr %this.addr, align 8
  store i32 %signum, ptr %signum.addr, align 4
  %this1 = load ptr, ptr %this.addr, align 8
  %mods = getelementptr inbounds %"class.icu_75::number::impl::AdoptingSignumModifierStore", ptr %this1, i32 0, i32 1
  %0 = load i32, ptr %signum.addr, align 4
  %idxprom = zext i32 %0 to i64
  %arrayidx = getelementptr inbounds [4 x ptr], ptr %mods, i64 0, i64 %idxprom
  %1 = load ptr, ptr %arrayidx, align 8
  ret ptr %1
}

; Function Attrs: mustprogress nounwind uwtable
define linkonce_odr noundef ptr @_ZNK6icu_756number4impl21AdoptingModifierStore24getModifierWithoutPluralENS1_6SignumE(ptr noundef nonnull align 8 dereferenceable(328) %this, i32 noundef %signum) #0 comdat align 2 {
entry:
  %this.addr = alloca ptr, align 8
  %signum.addr = alloca i32, align 4
  store ptr %this, ptr %this.addr, align 8
  store i32 %signum, ptr %signum.addr, align 4
  %this1 = load ptr, ptr %this.addr, align 8
  %mods = getelementptr inbounds %"class.icu_75::number::impl::AdoptingModifierStore", ptr %this1, i32 0, i32 1
  %arrayidx = getelementptr inbounds [8 x %"class.icu_75::number::impl::AdoptingSignumModifierStore"], ptr %mods, i64 0, i64 5
  %0 = load i32, ptr %signum.addr, align 4
  %call = call noundef ptr @_ZNK6icu_756number4impl27AdoptingSignumModifierStoreixENS1_6SignumE(ptr noundef nonnull align 8 dereferenceable(40) %arrayidx, i32 noundef %0)
  ret ptr %call
}

; Function Attrs: mustprogress nounwind uwtable
define linkonce_odr noundef ptr @_ZNK6icu_7516LocalPointerBaseINS_6number4impl21AdoptingModifierStoreEEptEv(ptr noundef nonnull align 8 dereferenceable(8) %this) #0 comdat align 2 {
entry:
  %this.addr = alloca ptr, align 8
  store ptr %this, ptr %this.addr, align 8
  %this1 = load ptr, ptr %this.addr, align 8
  %ptr = getelementptr inbounds %"class.icu_75::LocalPointerBase", ptr %this1, i32 0, i32 0
  %0 = load ptr, ptr %ptr, align 8
  ret ptr %0
}

; Function Attrs: mustprogress uwtable
define noundef ptr @_ZNK6icu_756number4impl24ImmutablePatternModifier11getModifierENS1_6SignumENS_14StandardPlural4FormE(ptr noundef nonnull align 8 dereferenceable(32) %this, i32 noundef %signum, i32 noundef %plural) #1 align 2 {
entry:
  %retval = alloca ptr, align 8
  %this.addr = alloca ptr, align 8
  %signum.addr = alloca i32, align 4
  %plural.addr = alloca i32, align 4
  store ptr %this, ptr %this.addr, align 8
  store i32 %signum, ptr %signum.addr, align 4
  store i32 %plural, ptr %plural.addr, align 4
  %this1 = load ptr, ptr %this.addr, align 8
  %rules = getelementptr inbounds %"class.icu_75::number::impl::ImmutablePatternModifier", ptr %this1, i32 0, i32 2
  %0 = load ptr, ptr %rules, align 8
  %cmp = icmp eq ptr %0, null
  br i1 %cmp, label %if.then, label %if.else

if.then:                                          ; preds = %entry
  %pm = getelementptr inbounds %"class.icu_75::number::impl::ImmutablePatternModifier", ptr %this1, i32 0, i32 1
  %call = call noundef ptr @_ZNK6icu_7516LocalPointerBaseINS_6number4impl21AdoptingModifierStoreEEptEv(ptr noundef nonnull align 8 dereferenceable(8) %pm)
  %1 = load i32, ptr %signum.addr, align 4
  %call2 = call noundef ptr @_ZNK6icu_756number4impl21AdoptingModifierStore24getModifierWithoutPluralENS1_6SignumE(ptr noundef nonnull align 8 dereferenceable(328) %call, i32 noundef %1)
  store ptr %call2, ptr %retval, align 8
  br label %return

if.else:                                          ; preds = %entry
  %pm3 = getelementptr inbounds %"class.icu_75::number::impl::ImmutablePatternModifier", ptr %this1, i32 0, i32 1
  %call4 = call noundef ptr @_ZNK6icu_7516LocalPointerBaseINS_6number4impl21AdoptingModifierStoreEEptEv(ptr noundef nonnull align 8 dereferenceable(8) %pm3)
  %2 = load i32, ptr %signum.addr, align 4
  %3 = load i32, ptr %plural.addr, align 4
  %vtable = load ptr, ptr %call4, align 8
  %vfn = getelementptr inbounds ptr, ptr %vtable, i64 2
  %4 = load ptr, ptr %vfn, align 8
  %call5 = call noundef ptr %4(ptr noundef nonnull align 8 dereferenceable(328) %call4, i32 noundef %2, i32 noundef %3)
  store ptr %call5, ptr %retval, align 8
  br label %return

return:                                           ; preds = %if.else, %if.then
  %5 = load ptr, ptr %retval, align 8
  ret ptr %5
}