; Function Attrs: mustprogress uwtable
define noundef ptr @_ZNK6icu_756number4impl24ImmutablePatternModifier11getModifierENS1_6SignumENS_14StandardPlural4FormE(ptr nocapture noundef nonnull readonly align 8 dereferenceable(32) %this, i32 noundef %signum, i32 noundef %plural) local_unnamed_addr #1 align 2 {
entry:
  %rules = getelementptr inbounds i8, ptr %this, i64 16
  %0 = load ptr, ptr %rules, align 8
  %cmp = icmp eq ptr %0, null
  %pm = getelementptr inbounds i8, ptr %this, i64 8
  %1 = load ptr, ptr %pm, align 8
  br i1 %cmp, label %if.then, label %if.else

if.then:                                          ; preds = %entry
  %mods.i.i = getelementptr inbounds i8, ptr %1, i64 216
  %idxprom.i.i = zext i32 %signum to i64
  %arrayidx.i.i = getelementptr inbounds [4 x ptr], ptr %mods.i.i, i64 0, i64 %idxprom.i.i
  %2 = load ptr, ptr %arrayidx.i.i, align 8
  br label %return

if.else:                                          ; preds = %entry
  %vtable = load ptr, ptr %1, align 8
  %vfn = getelementptr inbounds i8, ptr %vtable, i64 16
  %3 = load ptr, ptr %vfn, align 8
  %call5 = tail call noundef ptr %3(ptr noundef nonnull align 8 dereferenceable(328) %1, i32 noundef %signum, i32 noundef %plural)
  br label %return

return:                                           ; preds = %if.else, %if.then
  %retval.0 = phi ptr [ %2, %if.then ], [ %call5, %if.else ]
  ret ptr %retval.0
}